; Function Attrs: nofree norecurse nosync nounwind memory(argmem: readwrite) uwtable
define internal void @blend_linearlight_16bit(ptr noundef readonly captures(none) %0, i64 noundef %1, ptr noundef readonly captures(none) %2, i64 noundef %3, ptr noundef writeonly captures(none) %4, i64 noundef %5, i64 noundef %6, i64 noundef %7, ptr noundef readonly captures(none) %8, ptr readnone captures(none) %9) #6 {
  %11 = getelementptr inbounds nuw i8, ptr %8, i64 8
  %12 = load double, ptr %11, align 8, !tbaa !70
  %13 = fptrunc nsz double %12 to float
  %14 = lshr i64 %5, 1
  %15 = lshr i64 %1, 1
  %16 = lshr i64 %3, 1
  %17 = icmp sgt i64 %7, 0
  %18 = icmp sgt i64 %6, 0
  %or.cond = and i1 %17, %18
  br i1 %or.cond, label %.preheader.us, label %._crit_edge46

.preheader.us:                                    ; preds = %10, %._crit_edge.us
  %indvars.iv50 = phi i64 [ %indvars.iv.next51, %._crit_edge.us ], [ 0, %10 ]
  %.03644.us = phi ptr [ %41, %._crit_edge.us ], [ %4, %10 ]
  %.03743.us = phi ptr [ %43, %._crit_edge.us ], [ %2, %10 ]
  %.03842.us = phi ptr [ %42, %._crit_edge.us ], [ %0, %10 ]
  br label %19

19:                                               ; preds = %.preheader.us, %19
  %indvars.iv = phi i64 [ 0, %.preheader.us ], [ %indvars.iv.next, %19 ]
  %20 = getelementptr inbounds nuw i16, ptr %.03842.us, i64 %indvars.iv
  %21 = load i16, ptr %20, align 2, !tbaa !85
  %22 = zext i16 %21 to i32
  %23 = uitofp i16 %21 to float
  %24 = getelementptr inbounds nuw i16, ptr %.03743.us, i64 %indvars.iv
  %25 = load i16, ptr %24, align 2, !tbaa !85
  %26 = zext i16 %25 to i32
  %27 = shl nuw nsw i32 %22, 1
  %28 = add nuw nsw i32 %26, -65535
  %29 = add nsw i32 %28, %27
  %30 = add nsw i32 %27, -65536
  %31 = add nsw i32 %30, %26
  %32 = icmp slt i16 %25, 0
  %33 = select i1 %32, i32 %31, i32 %29
  %34 = tail call i32 @llvm.smax.i32(i32 %33, i32 0)
  %35 = tail call i32 @llvm.umin.i32(i32 %34, i32 65535)
  %36 = sub nsw i32 %35, %22
  %37 = sitofp i32 %36 to float
  %38 = tail call nsz float @llvm.fmuladd.f32(float %37, float %13, float %23)
  %39 = fptoui float %38 to i16
  %40 = getelementptr inbounds nuw i16, ptr %.03644.us, i64 %indvars.iv
  store i16 %39, ptr %40, align 2, !tbaa !85
  %indvars.iv.next = add nuw nsw i64 %indvars.iv, 1
  %exitcond.not = icmp eq i64 %indvars.iv.next, %6
  br i1 %exitcond.not, label %._crit_edge.us, label %19, !llvm.loop !522

._crit_edge.us:                                   ; preds = %19
  %41 = getelementptr inbounds nuw i16, ptr %.03644.us, i64 %14
  %42 = getelementptr inbounds nuw i16, ptr %.03842.us, i64 %15
  %43 = getelementptr inbounds nuw i16, ptr %.03743.us, i64 %16
  %indvars.iv.next51 = add nuw nsw i64 %indvars.iv50, 1
  %exitcond53.not = icmp eq i64 %indvars.iv.next51, %7
  br i1 %exitcond53.not, label %._crit_edge46, label %.preheader.us, !llvm.loop !523

._crit_edge46:                                    ; preds = %._crit_edge.us, %10
  ret void
}